target datalayout = "e-m:e-p270:32:32-p271:32:32-p272:64:64-i64:64-i128:128-f80:128-n8:16:32:64-S128"
target triple = "x86_64-unknown-linux-gnu"

%struct.VirtQueueElement = type { i32, i32, i32, i32, i32, ptr, ptr, ptr, ptr }
%struct.timeval = type { i64, i64 }

@.str.42 = private unnamed_addr constant [27 x i8] c"../qemu/hw/virtio/virtio.c\00", align 1
@trace_events_enabled_count = external global i32, align 4
@message_with_timestamp = external global i8, align 1
@.str.90 = private unnamed_addr constant [31 x i8] c"sz >= sizeof(VirtQueueElement)\00", align 1
@__PRETTY_FUNCTION__.virtqueue_alloc_element = private unnamed_addr constant [66 x i8] c"void *virtqueue_alloc_element(size_t, unsigned int, unsigned int)\00", align 1
@_TRACE_VIRTQUEUE_ALLOC_ELEMENT_DSTATE = external global i16, align 2
@.str.91 = private unnamed_addr constant [76 x i8] c"%d@%zu.%06zu:virtqueue_alloc_element elem %p size %zd in_num %u out_num %u\0A\00", align 1
@.str.92 = private unnamed_addr constant [63 x i8] c"virtqueue_alloc_element elem %p size %zd in_num %u out_num %u\0A\00", align 1
@qemu_loglevel = external global i32, align 4

; Function Attrs: nounwind sspstrong uwtable
define internal zeroext i1 @qemu_loglevel_mask(i32 noundef %mask) #0 {
entry:
  %mask.addr = alloca i32, align 4
  store i32 %mask, ptr %mask.addr, align 4
  %0 = load i32, ptr @qemu_loglevel, align 4
  %1 = load i32, ptr %mask.addr, align 4
  %and = and i32 %0, %1
  %cmp = icmp ne i32 %and, 0
  ret i1 %cmp
}

; Function Attrs: nounwind sspstrong uwtable
define internal void @_nocheck__trace_virtqueue_alloc_element(ptr noundef %elem, i64 noundef %sz, i32 noundef %in_num, i32 noundef %out_num) #0 {
entry:
  %elem.addr = alloca ptr, align 8
  %sz.addr = alloca i64, align 8
  %in_num.addr = alloca i32, align 4
  %out_num.addr = alloca i32, align 4
  %_now = alloca %struct.timeval, align 8
  store ptr %elem, ptr %elem.addr, align 8
  store i64 %sz, ptr %sz.addr, align 8
  store i32 %in_num, ptr %in_num.addr, align 4
  store i32 %out_num, ptr %out_num.addr, align 4
  %0 = load i32, ptr @trace_events_enabled_count, align 4
  %tobool = icmp ne i32 %0, 0
  %lnot = xor i1 %tobool, true
  %lnot1 = xor i1 %lnot, true
  %lnot.ext = zext i1 %lnot1 to i32
  %conv = sext i32 %lnot.ext to i64
  %tobool2 = icmp ne i64 %conv, 0
  br i1 %tobool2, label %land.lhs.true, label %if.end11

land.lhs.true:                                    ; preds = %entry
  %1 = load i16, ptr @_TRACE_VIRTQUEUE_ALLOC_ELEMENT_DSTATE, align 2
  %conv3 = zext i16 %1 to i32
  %tobool4 = icmp ne i32 %conv3, 0
  br i1 %tobool4, label %land.lhs.true5, label %if.end11

land.lhs.true5:                                   ; preds = %land.lhs.true
  %call = call zeroext i1 @qemu_loglevel_mask(i32 noundef 32768)
  br i1 %call, label %if.then, label %if.end11

if.then:                                          ; preds = %land.lhs.true5
  %2 = load i8, ptr @message_with_timestamp, align 1
  %tobool7 = trunc i8 %2 to i1
  br i1 %tobool7, label %if.then8, label %if.else

if.then8:                                         ; preds = %if.then
  %call9 = call i32 @gettimeofday(ptr noundef %_now, ptr noundef null) #14
  %call10 = call i32 @qemu_get_thread_id()
  %tv_sec = getelementptr inbounds %struct.timeval, ptr %_now, i32 0, i32 0
  %3 = load i64, ptr %tv_sec, align 8
  %tv_usec = getelementptr inbounds %struct.timeval, ptr %_now, i32 0, i32 1
  %4 = load i64, ptr %tv_usec, align 8
  %5 = load ptr, ptr %elem.addr, align 8
  %6 = load i64, ptr %sz.addr, align 8
  %7 = load i32, ptr %in_num.addr, align 4
  %8 = load i32, ptr %out_num.addr, align 4
  call void (ptr, ...) @qemu_log(ptr noundef @.str.91, i32 noundef %call10, i64 noundef %3, i64 noundef %4, ptr noundef %5, i64 noundef %6, i32 noundef %7, i32 noundef %8)
  br label %if.end

if.else:                                          ; preds = %if.then
  %9 = load ptr, ptr %elem.addr, align 8
  %10 = load i64, ptr %sz.addr, align 8
  %11 = load i32, ptr %in_num.addr, align 4
  %12 = load i32, ptr %out_num.addr, align 4
  call void (ptr, ...) @qemu_log(ptr noundef @.str.92, ptr noundef %9, i64 noundef %10, i32 noundef %11, i32 noundef %12)
  br label %if.end

if.end:                                           ; preds = %if.else, %if.then8
  br label %if.end11

if.end11:                                         ; preds = %if.end, %land.lhs.true5, %land.lhs.true, %entry
  ret void
}

; Function Attrs: nounwind sspstrong uwtable
define internal void @trace_virtqueue_alloc_element(ptr noundef %elem, i64 noundef %sz, i32 noundef %in_num, i32 noundef %out_num) #0 {
entry:
  %elem.addr = alloca ptr, align 8
  %sz.addr = alloca i64, align 8
  %in_num.addr = alloca i32, align 4
  %out_num.addr = alloca i32, align 4
  store ptr %elem, ptr %elem.addr, align 8
  store i64 %sz, ptr %sz.addr, align 8
  store i32 %in_num, ptr %in_num.addr, align 4
  store i32 %out_num, ptr %out_num.addr, align 4
  %0 = load ptr, ptr %elem.addr, align 8
  %1 = load i64, ptr %sz.addr, align 8
  %2 = load i32, ptr %in_num.addr, align 4
  %3 = load i32, ptr %out_num.addr, align 4
  call void @_nocheck__trace_virtqueue_alloc_element(ptr noundef %0, i64 noundef %1, i32 noundef %2, i32 noundef %3)
  ret void
}

; Function Attrs: nounwind sspstrong uwtable
define internal ptr @virtqueue_alloc_element(i64 noundef %sz, i32 noundef %out_num, i32 noundef %in_num) #0 {
entry:
  %sz.addr = alloca i64, align 8
  %out_num.addr = alloca i32, align 4
  %in_num.addr = alloca i32, align 4
  %elem = alloca ptr, align 8
  %in_addr_ofs = alloca i64, align 8
  %out_addr_ofs = alloca i64, align 8
  %out_addr_end = alloca i64, align 8
  %in_sg_ofs = alloca i64, align 8
  %out_sg_ofs = alloca i64, align 8
  %out_sg_end = alloca i64, align 8
  store i64 %sz, ptr %sz.addr, align 8
  store i32 %out_num, ptr %out_num.addr, align 4
  store i32 %in_num, ptr %in_num.addr, align 4
  %0 = load i64, ptr %sz.addr, align 8
  %add = add i64 %0, 8
  %sub = sub i64 %add, 1
  %div = udiv i64 %sub, 8
  %mul = mul i64 %div, 8
  store i64 %mul, ptr %in_addr_ofs, align 8
  %1 = load i64, ptr %in_addr_ofs, align 8
  %2 = load i32, ptr %in_num.addr, align 4
  %conv = zext i32 %2 to i64
  %mul1 = mul i64 %conv, 8
  %add2 = add i64 %1, %mul1
  store i64 %add2, ptr %out_addr_ofs, align 8
  %3 = load i64, ptr %out_addr_ofs, align 8
  %4 = load i32, ptr %out_num.addr, align 4
  %conv3 = zext i32 %4 to i64
  %mul4 = mul i64 %conv3, 8
  %add5 = add i64 %3, %mul4
  store i64 %add5, ptr %out_addr_end, align 8
  %5 = load i64, ptr %out_addr_end, align 8
  %add6 = add i64 %5, 8
  %sub7 = sub i64 %add6, 1
  %div8 = udiv i64 %sub7, 8
  %mul9 = mul i64 %div8, 8
  store i64 %mul9, ptr %in_sg_ofs, align 8
  %6 = load i64, ptr %in_sg_ofs, align 8
  %7 = load i32, ptr %in_num.addr, align 4
  %conv10 = zext i32 %7 to i64
  %mul11 = mul i64 %conv10, 16
  %add12 = add i64 %6, %mul11
  store i64 %add12, ptr %out_sg_ofs, align 8
  %8 = load i64, ptr %out_sg_ofs, align 8
  %9 = load i32, ptr %out_num.addr, align 4
  %conv13 = zext i32 %9 to i64
  %mul14 = mul i64 %conv13, 16
  %add15 = add i64 %8, %mul14
  store i64 %add15, ptr %out_sg_end, align 8
  %10 = load i64, ptr %sz.addr, align 8
  %cmp = icmp uge i64 %10, 56
  br i1 %cmp, label %if.then, label %if.else

if.then:                                          ; preds = %entry
  br label %if.end

if.else:                                          ; preds = %entry
  call void @__assert_fail(ptr noundef @.str.90, ptr noundef @.str.42, i32 noundef 1486, ptr noundef @__PRETTY_FUNCTION__.virtqueue_alloc_element) #13
  unreachable

if.end:                                           ; preds = %if.then
  %11 = load i64, ptr %out_sg_end, align 8
  %call = call noalias ptr @g_malloc(i64 noundef %11) #15
  store ptr %call, ptr %elem, align 8
  %12 = load ptr, ptr %elem, align 8
  %13 = load i64, ptr %sz.addr, align 8
  %14 = load i32, ptr %in_num.addr, align 4
  %15 = load i32, ptr %out_num.addr, align 4
  call void @trace_virtqueue_alloc_element(ptr noundef %12, i64 noundef %13, i32 noundef %14, i32 noundef %15)
  %16 = load i32, ptr %out_num.addr, align 4
  %17 = load ptr, ptr %elem, align 8
  %out_num17 = getelementptr inbounds %struct.VirtQueueElement, ptr %17, i32 0, i32 3
  store i32 %16, ptr %out_num17, align 4
  %18 = load i32, ptr %in_num.addr, align 4
  %19 = load ptr, ptr %elem, align 8
  %in_num18 = getelementptr inbounds %struct.VirtQueueElement, ptr %19, i32 0, i32 4
  store i32 %18, ptr %in_num18, align 8
  %20 = load ptr, ptr %elem, align 8
  %21 = load i64, ptr %in_addr_ofs, align 8
  %add.ptr = getelementptr i8, ptr %20, i64 %21
  %22 = load ptr, ptr %elem, align 8
  %in_addr = getelementptr inbounds %struct.VirtQueueElement, ptr %22, i32 0, i32 5
  store ptr %add.ptr, ptr %in_addr, align 8
  %23 = load ptr, ptr %elem, align 8
  %24 = load i64, ptr %out_addr_ofs, align 8
  %add.ptr19 = getelementptr i8, ptr %23, i64 %24
  %25 = load ptr, ptr %elem, align 8
  %out_addr = getelementptr inbounds %struct.VirtQueueElement, ptr %25, i32 0, i32 6
  store ptr %add.ptr19, ptr %out_addr, align 8
  %26 = load ptr, ptr %elem, align 8
  %27 = load i64, ptr %in_sg_ofs, align 8
  %add.ptr20 = getelementptr i8, ptr %26, i64 %27
  %28 = load ptr, ptr %elem, align 8
  %in_sg = getelementptr inbounds %struct.VirtQueueElement, ptr %28, i32 0, i32 7
  store ptr %add.ptr20, ptr %in_sg, align 8
  %29 = load ptr, ptr %elem, align 8
  %30 = load i64, ptr %out_sg_ofs, align 8
  %add.ptr21 = getelementptr i8, ptr %29, i64 %30
  %31 = load ptr, ptr %elem, align 8
  %out_sg = getelementptr inbounds %struct.VirtQueueElement, ptr %31, i32 0, i32 8
  store ptr %add.ptr21, ptr %out_sg, align 8
  %32 = load ptr, ptr %elem, align 8
  ret ptr %32
}